#include <math.h>
#include <stdio.h>
#include <stdlib.h>
#include <string.h>

int reverse(int num);
int main()
{
	int a[6],i,k;
	for(i=0;i<6;i++)
	{
		scanf("%d",&a[i]);
		k=reverse(a[i]);
		printf("%d\n",k);
	}
	return 0;
}

int reverse(int num)
{
	int b,c=0,i,j;
	for(i=0;;i++)
	{
		b=num%10;
		num=num/10;
		c=10*c+b;
		if(num==0)
			break;

	}
	return c;
}
